target datalayout = "e-m:e-p270:32:32-p271:32:32-p272:64:64-i64:64-i128:128-f80:128-n8:16:32:64-S128"
target triple = "x86_64-pc-linux-gnu"

%struct._packet_info = type { ptr, ptr, i32, i32, %struct.nstime_t, %struct.nstime_t, %struct.nstime_t, i8, ptr, ptr, ptr, ptr, %struct._address, %struct._address, %struct._address, %struct._address, %struct._address, %struct._address, i32, ptr, i8, [3 x i8], %struct.anon, i32, i32, i32, i32, ptr, i8, ptr, ptr, i16, i16, i32, i32, i16, i32, i32, ptr, ptr, ptr, i8, i8, i16, i16, i16, i32, i16, i16, ptr, ptr, ptr, ptr, ptr, i32, i32 }
%struct.nstime_t = type { i64, i32 }
%struct._address = type { i32, i32, ptr, ptr }
%struct.anon = type { i8, [3 x i8] }

@hf_s7comm_piservice_string_len = internal global i32 0, align 4
@.str.2124 = private unnamed_addr constant [1 x i8] zeroinitializer, align 1
@.str.2127 = private unnamed_addr constant [7 x i8] c": (%s)\00", align 1
@.str.2339 = private unnamed_addr constant [2 x i8] c"\22\00", align 1
@.str.2340 = private unnamed_addr constant [4 x i8] c"\22, \00", align 1
@.str.2341 = private unnamed_addr constant [11 x i8] c" -> %s(%s)\00", align 1

; Function Attrs: null_pointer_is_valid sspstrong uwtable
define internal i32 @s7comm_decode_pistart_parameters(ptr noundef %0, ptr noundef %1, ptr noundef %2, ptr noundef %3, ptr noundef %4, i8 noundef zeroext %5, ptr noundef %6, i32 noundef %7) #0 {
  %9 = alloca ptr, align 8
  %10 = alloca ptr, align 8
  %11 = alloca ptr, align 8
  %12 = alloca ptr, align 8
  %13 = alloca ptr, align 8
  %14 = alloca i8, align 1
  %15 = alloca ptr, align 8
  %16 = alloca i32, align 4
  %17 = alloca i8, align 1
  %18 = alloca i8, align 1
  %19 = alloca ptr, align 8
  store ptr %0, ptr %9, align 8
  store ptr %1, ptr %10, align 8
  store ptr %2, ptr %11, align 8
  store ptr %3, ptr %12, align 8
  store ptr %4, ptr %13, align 8
  store i8 %5, ptr %14, align 1
  store ptr %6, ptr %15, align 8
  store i32 %7, ptr %16, align 4
  call void @llvm.lifetime.start.p0(i64 1, ptr %17) #8
  call void @llvm.lifetime.start.p0(i64 1, ptr %18) #8
  call void @llvm.lifetime.start.p0(i64 8, ptr %19) #8
  %20 = load ptr, ptr %10, align 8
  %21 = getelementptr inbounds nuw %struct._packet_info, ptr %20, i32 0, i32 51
  %22 = load ptr, ptr %21, align 8
  %23 = call noalias ptr @wmem_strbuf_new(ptr noundef %22, ptr noundef @.str.2124)
  store ptr %23, ptr %19, align 8
  store i8 0, ptr %17, align 1
  br label %24

24:                                               ; preds = %85, %8
  %25 = load i8, ptr %17, align 1
  %26 = zext i8 %25 to i32
  %27 = load i8, ptr %14, align 1
  %28 = zext i8 %27 to i32
  %29 = icmp slt i32 %26, %28
  br i1 %29, label %30, label %88

30:                                               ; preds = %24
  %31 = load ptr, ptr %9, align 8
  %32 = load i32, ptr %16, align 4
  %33 = call zeroext i8 @tvb_get_uint8(ptr noundef %31, i32 noundef %32)
  store i8 %33, ptr %18, align 1
  %34 = load ptr, ptr %12, align 8
  %35 = load i32, ptr @hf_s7comm_piservice_string_len, align 4
  %36 = load ptr, ptr %9, align 8
  %37 = load i32, ptr %16, align 4
  %38 = load i8, ptr %18, align 1
  %39 = zext i8 %38 to i32
  %40 = call ptr @proto_tree_add_uint(ptr noundef %34, i32 noundef %35, ptr noundef %36, i32 noundef %37, i32 noundef 1, i32 noundef %39)
  %41 = load i32, ptr %16, align 4
  %42 = add i32 %41, 1
  store i32 %42, ptr %16, align 4
  %43 = load ptr, ptr %12, align 8
  %44 = load ptr, ptr %15, align 8
  %45 = load i8, ptr %17, align 1
  %46 = zext i8 %45 to i64
  %47 = getelementptr i32, ptr %44, i64 %46
  %48 = load i32, ptr %47, align 4
  %49 = load ptr, ptr %9, align 8
  %50 = load i32, ptr %16, align 4
  %51 = load i8, ptr %18, align 1
  %52 = zext i8 %51 to i32
  %53 = call ptr @proto_tree_add_item(ptr noundef %43, i32 noundef %48, ptr noundef %49, i32 noundef %50, i32 noundef %52, i32 noundef 0)
  %54 = load ptr, ptr %19, align 8
  call void @wmem_strbuf_append(ptr noundef %54, ptr noundef @.str.2339)
  %55 = load ptr, ptr %19, align 8
  %56 = load ptr, ptr %10, align 8
  %57 = getelementptr inbounds nuw %struct._packet_info, ptr %56, i32 0, i32 51
  %58 = load ptr, ptr %57, align 8
  %59 = load ptr, ptr %9, align 8
  %60 = load i32, ptr %16, align 4
  %61 = load i8, ptr %18, align 1
  %62 = zext i8 %61 to i32
  %63 = call ptr @tvb_format_text(ptr noundef %58, ptr noundef %59, i32 noundef %60, i32 noundef %62)
  call void @wmem_strbuf_append(ptr noundef %55, ptr noundef %63)
  %64 = load i8, ptr %17, align 1
  %65 = zext i8 %64 to i32
  %66 = load i8, ptr %14, align 1
  %67 = zext i8 %66 to i32
  %68 = sub i32 %67, 1
  %69 = icmp slt i32 %65, %68
  br i1 %69, label %70, label %72

70:                                               ; preds = %30
  %71 = load ptr, ptr %19, align 8
  call void @wmem_strbuf_append(ptr noundef %71, ptr noundef @.str.2340)
  br label %74

72:                                               ; preds = %30
  %73 = load ptr, ptr %19, align 8
  call void @wmem_strbuf_append(ptr noundef %73, ptr noundef @.str.2339)
  br label %74

74:                                               ; preds = %72, %70
  %75 = load i8, ptr %18, align 1
  %76 = zext i8 %75 to i32
  %77 = load i8, ptr %18, align 1
  %78 = zext i8 %77 to i32
  %79 = srem i32 %78, 2
  %80 = icmp eq i32 %79, 0
  %81 = zext i1 %80 to i32
  %82 = add i32 %76, %81
  %83 = load i32, ptr %16, align 4
  %84 = add i32 %83, %82
  store i32 %84, ptr %16, align 4
  br label %85

85:                                               ; preds = %74
  %86 = load i8, ptr %17, align 1
  %87 = add i8 %86, 1
  store i8 %87, ptr %17, align 1
  br label %24, !llvm.loop !18

88:                                               ; preds = %24
  %89 = load ptr, ptr %12, align 8
  %90 = load ptr, ptr %19, align 8
  %91 = call ptr @wmem_strbuf_get_str(ptr noundef %90)
  call void (ptr, ptr, ...) @proto_item_append_text(ptr noundef %89, ptr noundef @.str.2127, ptr noundef %91)
  %92 = load ptr, ptr %11, align 8
  %93 = load ptr, ptr %13, align 8
  %94 = load ptr, ptr %19, align 8
  %95 = call ptr @wmem_strbuf_get_str(ptr noundef %94)
  call void (ptr, ptr, ...) @proto_item_append_text(ptr noundef %92, ptr noundef @.str.2341, ptr noundef %93, ptr noundef %95)
  %96 = load ptr, ptr %10, align 8
  %97 = getelementptr inbounds nuw %struct._packet_info, ptr %96, i32 0, i32 1
  %98 = load ptr, ptr %97, align 8
  %99 = load ptr, ptr %13, align 8
  %100 = load ptr, ptr %19, align 8
  %101 = call ptr @wmem_strbuf_get_str(ptr noundef %100)
  call void (ptr, i32, ptr, ...) @col_append_fstr(ptr noundef %98, i32 noundef 25, ptr noundef @.str.2341, ptr noundef %99, ptr noundef %101)
  %102 = load i32, ptr %16, align 4
  call void @llvm.lifetime.end.p0(i64 8, ptr %19) #8
  call void @llvm.lifetime.end.p0(i64 1, ptr %18) #8
  call void @llvm.lifetime.end.p0(i64 1, ptr %17) #8
  ret i32 %102
}