; Function Attrs: null_pointer_is_valid sspstrong uwtable
define internal fastcc void @s7comm_decode_pistart_parameters(ptr noundef %0, ptr noundef readonly captures(none) %1, ptr noundef %2, ptr noundef %3, ptr noundef %4, i8 noundef zeroext range(i8 1, 14) %5, ptr noundef readonly captures(none) %6, i32 noundef range(i32 20, 23) %7) unnamed_addr #0 {
  %9 = getelementptr inbounds nuw i8, ptr %1, i64 408
  %10 = load ptr, ptr %9, align 8
  %11 = tail call noalias ptr @wmem_strbuf_new(ptr noundef %10, ptr noundef nonnull @.str.2124)
  %12 = zext nneg i8 %5 to i64
  %13 = add nuw nsw i64 %12, 4294967295
  %zext = and i64 %13, 4294967295
  %wide.trip.count = zext nneg i8 %5 to i64
  br label %14

14:                                               ; preds = %8, %14
  %indvars.iv = phi i64 [ 0, %8 ], [ %indvars.iv.next, %14 ]
  %.042 = phi i32 [ %7, %8 ], [ %27, %14 ]
  %15 = tail call zeroext i8 @tvb_get_uint8(ptr noundef %0, i32 noundef %.042)
  %16 = load i32, ptr @hf_s7comm_piservice_string_len, align 4
  %17 = zext i8 %15 to i32
  %18 = tail call ptr @proto_tree_add_uint(ptr noundef %3, i32 noundef %16, ptr noundef %0, i32 noundef %.042, i32 noundef 1, i32 noundef %17)
  %19 = add i32 %.042, 1
  %20 = getelementptr i32, ptr %6, i64 %indvars.iv
  %21 = load i32, ptr %20, align 4
  %22 = tail call ptr @proto_tree_add_item(ptr noundef %3, i32 noundef %21, ptr noundef %0, i32 noundef %19, i32 noundef %17, i32 noundef 0)
  tail call void @wmem_strbuf_append(ptr noundef %11, ptr noundef nonnull @.str.2339)
  %23 = load ptr, ptr %9, align 8
  %24 = tail call ptr @tvb_format_text(ptr noundef %23, ptr noundef %0, i32 noundef %19, i32 noundef %17)
  tail call void @wmem_strbuf_append(ptr noundef %11, ptr noundef %24)
  %25 = icmp samesign ult i64 %indvars.iv, %zext
  %.str.2340..str.2339 = select i1 %25, ptr @.str.2340, ptr @.str.2339
  tail call void @wmem_strbuf_append(ptr noundef %11, ptr noundef nonnull %.str.2340..str.2339)
  %26 = or i32 %17, 1
  %27 = add i32 %26, %19
  %indvars.iv.next = add nuw nsw i64 %indvars.iv, 1
  %exitcond.not = icmp eq i64 %indvars.iv.next, %wide.trip.count
  br i1 %exitcond.not, label %28, label %14, !llvm.loop !19

28:                                               ; preds = %14
  %29 = tail call ptr @wmem_strbuf_get_str(ptr noundef %11)
  tail call void (ptr, ptr, ...) @proto_item_append_text(ptr noundef %3, ptr noundef nonnull @.str.2127, ptr noundef %29)
  %30 = tail call ptr @wmem_strbuf_get_str(ptr noundef %11)
  tail call void (ptr, ptr, ...) @proto_item_append_text(ptr noundef %2, ptr noundef nonnull @.str.2341, ptr noundef %4, ptr noundef %30)
  %31 = getelementptr inbounds nuw i8, ptr %1, i64 8
  %32 = load ptr, ptr %31, align 8
  %33 = tail call ptr @wmem_strbuf_get_str(ptr noundef %11)
  tail call void (ptr, i32, ptr, ...) @col_append_fstr(ptr noundef %32, i32 noundef 25, ptr noundef nonnull @.str.2341, ptr noundef %4, ptr noundef %33)
  ret void
}